; Function Attrs: nounwind uwtable
define ptr @l_Lean_findModuleOf_x3f___rarg___lambda__1(ptr noundef %0, ptr noundef %1, ptr noundef %2) local_unnamed_addr #0 {
  %4 = getelementptr inbounds nuw i8, ptr %0, i64 16
  %5 = load ptr, ptr %4, align 8, !tbaa !10
  %6 = ptrtoint ptr %5 to i64
  %7 = and i64 %6, 1
  %.not = icmp eq i64 %7, 0
  br i1 %.not, label %8, label %lean_inc.exit

8:                                                ; preds = %3
  %.val.i = load i32, ptr %5, align 4, !tbaa !4
  %9 = icmp sgt i32 %.val.i, 0
  br i1 %9, label %10, label %12, !prof !9

10:                                               ; preds = %8
  %11 = add nuw i32 %.val.i, 1
  store i32 %11, ptr %5, align 4, !tbaa !4
  br label %lean_inc.exit

12:                                               ; preds = %8
  %.not.i16 = icmp eq i32 %.val.i, 0
  br i1 %.not.i16, label %lean_inc.exit, label %13

13:                                               ; preds = %12
  tail call void @lean_inc_ref_cold(ptr noundef nonnull %5) #4
  br label %lean_inc.exit

lean_inc.exit:                                    ; preds = %13, %12, %10, %3
  %14 = ptrtoint ptr %0 to i64
  %15 = and i64 %14, 1
  %.not19 = icmp eq i64 %15, 0
  br i1 %.not19, label %16, label %lean_dec.exit13

16:                                               ; preds = %lean_inc.exit
  %17 = load i32, ptr %0, align 4, !tbaa !4
  %18 = icmp sgt i32 %17, 1
  br i1 %18, label %19, label %21, !prof !9

19:                                               ; preds = %16
  %20 = add nsw i32 %17, -1
  store i32 %20, ptr %0, align 4, !tbaa !4
  br label %lean_dec.exit13

21:                                               ; preds = %16
  %.not.i = icmp eq i32 %17, 0
  br i1 %.not.i, label %lean_dec.exit13, label %22

22:                                               ; preds = %21
  tail call void @lean_dec_ref_cold(ptr noundef nonnull %0) #4
  br label %lean_dec.exit13

lean_dec.exit13:                                  ; preds = %22, %21, %19, %lean_inc.exit
  %23 = tail call ptr @l_Lean_Environment_allImportedModuleNames(ptr noundef %2) #4
  %24 = load ptr, ptr @l_Lean_instInhabitedName, align 8, !tbaa !10
  %25 = ptrtoint ptr %1 to i64
  %26 = and i64 %25, 1
  %.not.i17 = icmp eq i64 %26, 0
  br i1 %.not.i17, label %lean_array_uget.exit.i, label %27

27:                                               ; preds = %lean_dec.exit13
  %28 = lshr i64 %25, 1
  %29 = getelementptr i8, ptr %23, i64 8
  %.val.i18 = load i64, ptr %29, align 8, !tbaa !16
  %30 = icmp ult i64 %28, %.val.i18
  br i1 %30, label %31, label %lean_array_uget.exit.i

31:                                               ; preds = %27
  %32 = ptrtoint ptr %24 to i64
  %33 = and i64 %32, 1
  %.not14.i = icmp eq i64 %33, 0
  br i1 %.not14.i, label %34, label %lean_dec.exit.i

34:                                               ; preds = %31
  %35 = load i32, ptr %24, align 4, !tbaa !4
  %36 = icmp sgt i32 %35, 1
  br i1 %36, label %37, label %39, !prof !9

37:                                               ; preds = %34
  %38 = add nsw i32 %35, -1
  store i32 %38, ptr %24, align 4, !tbaa !4
  br label %lean_dec.exit.i

39:                                               ; preds = %34
  %.not.i.i = icmp eq i32 %35, 0
  br i1 %.not.i.i, label %lean_dec.exit.i, label %40

40:                                               ; preds = %39
  tail call void @lean_dec_ref_cold(ptr noundef nonnull %24) #4
  br label %lean_dec.exit.i

lean_dec.exit.i:                                  ; preds = %40, %39, %37, %31
  %41 = getelementptr inbounds nuw i8, ptr %23, i64 24
  %42 = getelementptr inbounds nuw [0 x ptr], ptr %41, i64 0, i64 %28
  %43 = load ptr, ptr %42, align 8, !tbaa !10
  %44 = ptrtoint ptr %43 to i64
  %45 = and i64 %44, 1
  %.not.i11.i = icmp eq i64 %45, 0
  br i1 %.not.i11.i, label %46, label %lean_array_get.exit

46:                                               ; preds = %lean_dec.exit.i
  %.val.i.i.i = load i32, ptr %43, align 4, !tbaa !4
  %47 = icmp sgt i32 %.val.i.i.i, 0
  br i1 %47, label %48, label %50, !prof !9

48:                                               ; preds = %46
  %49 = add nuw i32 %.val.i.i.i, 1
  store i32 %49, ptr %43, align 4, !tbaa !4
  br label %lean_array_get.exit

50:                                               ; preds = %46
  %.not.i.i.i = icmp eq i32 %.val.i.i.i, 0
  br i1 %.not.i.i.i, label %lean_array_get.exit, label %51

51:                                               ; preds = %50
  tail call void @lean_inc_ref_cold(ptr noundef nonnull %43) #4
  br label %lean_array_get.exit

lean_array_uget.exit.i:                           ; preds = %27, %lean_dec.exit13
  %52 = tail call ptr @lean_array_get_panic(ptr noundef %24) #4
  br label %lean_array_get.exit

lean_array_get.exit:                              ; preds = %lean_dec.exit.i, %48, %50, %51, %lean_array_uget.exit.i
  %.1.i = phi ptr [ %52, %lean_array_uget.exit.i ], [ %43, %51 ], [ %43, %50 ], [ %43, %48 ], [ %43, %lean_dec.exit.i ]
  %53 = ptrtoint ptr %23 to i64
  %54 = and i64 %53, 1
  %.not20 = icmp eq i64 %54, 0
  br i1 %.not20, label %55, label %lean_dec.exit

55:                                               ; preds = %lean_array_get.exit
  %56 = load i32, ptr %23, align 4, !tbaa !4
  %57 = icmp sgt i32 %56, 1
  br i1 %57, label %58, label %60, !prof !9

58:                                               ; preds = %55
  %59 = add nsw i32 %56, -1
  store i32 %59, ptr %23, align 4, !tbaa !4
  br label %lean_dec.exit

60:                                               ; preds = %55
  %.not.i14 = icmp eq i32 %56, 0
  br i1 %.not.i14, label %lean_dec.exit, label %61

61:                                               ; preds = %60
  tail call void @lean_dec_ref_cold(ptr noundef nonnull %23) #4
  br label %lean_dec.exit

lean_dec.exit:                                    ; preds = %61, %60, %58, %lean_array_get.exit
  tail call void @lean_inc_heartbeat() #4
  %62 = tail call noalias ptr @mi_malloc_small(i64 noundef 16) #4
  %63 = icmp eq ptr %62, null
  br i1 %63, label %64, label %lean_alloc_ctor.exit

64:                                               ; preds = %lean_dec.exit
  tail call void @lean_internal_panic_out_of_memory() #5
  unreachable

lean_alloc_ctor.exit:                             ; preds = %lean_dec.exit
  %65 = getelementptr inbounds nuw i8, ptr %62, i64 4
  store i32 1, ptr %62, align 4, !tbaa !4
  store i32 16842768, ptr %65, align 4
  %66 = getelementptr inbounds nuw i8, ptr %62, i64 8
  store ptr %.1.i, ptr %66, align 8, !tbaa !10
  %67 = tail call ptr @lean_apply_2(ptr noundef %5, ptr noundef nonnull inttoptr (i64 1 to ptr), ptr noundef nonnull %62) #4
  ret ptr %67
}